; Function Attrs: nounwind uwtable
define hidden void @je_extent_dalloc_gap(ptr noundef %0, ptr noundef %1, ptr noundef %2, ptr noundef %3) local_unnamed_addr #1 {
tsdn_witness_tsdp_get.exit:
  %4 = getelementptr i8, ptr %1, i64 58384
  %.val = load ptr, ptr %4, align 8, !tbaa !18
  %5 = tail call zeroext i1 @je_emap_register_boundary(ptr noundef %0, ptr noundef %.val, ptr noundef %3, i32 noundef 235, i1 noundef zeroext false) #9
  br i1 %5, label %6, label %9

6:                                                ; preds = %tsdn_witness_tsdp_get.exit
  %7 = getelementptr inbounds nuw i8, ptr %1, i64 58392
  %8 = load ptr, ptr %7, align 8, !tbaa !45
  tail call void @je_edata_cache_put(ptr noundef %0, ptr noundef %8, ptr noundef %3) #9
  br label %10

9:                                                ; preds = %tsdn_witness_tsdp_get.exit
  tail call void @je_extent_dalloc_wrapper(ptr noundef %0, ptr noundef nonnull %1, ptr noundef %2, ptr noundef %3)
  br label %10

10:                                               ; preds = %9, %6
  ret void
}